target datalayout = "e-m:e-p270:32:32-p271:32:32-p272:64:64-i64:64-i128:128-f80:128-n8:16:32:64-S128"
target triple = "x86_64-pc-linux-gnu"

; Function Attrs: nounwind uwtable
define internal i32 @rsa_validate(ptr noundef %0, i32 noundef %1, i32 noundef %2) #0 {
  %4 = alloca i32, align 4
  %5 = alloca ptr, align 8
  %6 = alloca i32, align 4
  %7 = alloca i32, align 4
  %8 = alloca ptr, align 8
  %9 = alloca i32, align 4
  %10 = alloca i32, align 4
  store ptr %0, ptr %5, align 8, !tbaa !3
  store i32 %1, ptr %6, align 4, !tbaa !11
  store i32 %2, ptr %7, align 4, !tbaa !11
  call void @llvm.lifetime.start.p0(i64 8, ptr %8) #6
  %11 = load ptr, ptr %5, align 8, !tbaa !3
  store ptr %11, ptr %8, align 8, !tbaa !9
  call void @llvm.lifetime.start.p0(i64 4, ptr %9) #6
  store i32 1, ptr %9, align 4, !tbaa !11
  %12 = call i32 @ossl_prov_is_running()
  %13 = icmp ne i32 %12, 0
  br i1 %13, label %15, label %14

14:                                               ; preds = %3
  store i32 0, ptr %4, align 4
  store i32 1, ptr %10, align 4
  br label %65

15:                                               ; preds = %3
  %16 = load i32, ptr %6, align 4, !tbaa !11
  %17 = and i32 %16, 131
  %18 = icmp eq i32 %17, 0
  br i1 %18, label %19, label %20

19:                                               ; preds = %15
  store i32 1, ptr %4, align 4
  store i32 1, ptr %10, align 4
  br label %65

20:                                               ; preds = %15
  %21 = load i32, ptr %6, align 4, !tbaa !11
  %22 = and i32 %21, 3
  %23 = icmp eq i32 %22, 3
  br i1 %23, label %24, label %34

24:                                               ; preds = %20
  %25 = load i32, ptr %9, align 4, !tbaa !11
  %26 = icmp ne i32 %25, 0
  br i1 %26, label %27, label %31

27:                                               ; preds = %24
  %28 = load ptr, ptr %8, align 8, !tbaa !9
  %29 = call i32 @ossl_rsa_validate_pairwise(ptr noundef %28)
  %30 = icmp ne i32 %29, 0
  br label %31

31:                                               ; preds = %27, %24
  %32 = phi i1 [ false, %24 ], [ %30, %27 ]
  %33 = zext i1 %32 to i32
  store i32 %33, ptr %9, align 4, !tbaa !11
  br label %63

34:                                               ; preds = %20
  %35 = load i32, ptr %6, align 4, !tbaa !11
  %36 = and i32 %35, 1
  %37 = icmp ne i32 %36, 0
  br i1 %37, label %38, label %48

38:                                               ; preds = %34
  %39 = load i32, ptr %9, align 4, !tbaa !11
  %40 = icmp ne i32 %39, 0
  br i1 %40, label %41, label %45

41:                                               ; preds = %38
  %42 = load ptr, ptr %8, align 8, !tbaa !9
  %43 = call i32 @ossl_rsa_validate_private(ptr noundef %42)
  %44 = icmp ne i32 %43, 0
  br label %45

45:                                               ; preds = %41, %38
  %46 = phi i1 [ false, %38 ], [ %44, %41 ]
  %47 = zext i1 %46 to i32
  store i32 %47, ptr %9, align 4, !tbaa !11
  br label %48

48:                                               ; preds = %45, %34
  %49 = load i32, ptr %6, align 4, !tbaa !11
  %50 = and i32 %49, 2
  %51 = icmp ne i32 %50, 0
  br i1 %51, label %52, label %62

52:                                               ; preds = %48
  %53 = load i32, ptr %9, align 4, !tbaa !11
  %54 = icmp ne i32 %53, 0
  br i1 %54, label %55, label %59

55:                                               ; preds = %52
  %56 = load ptr, ptr %8, align 8, !tbaa !9
  %57 = call i32 @ossl_rsa_validate_public(ptr noundef %56)
  %58 = icmp ne i32 %57, 0
  br label %59

59:                                               ; preds = %55, %52
  %60 = phi i1 [ false, %52 ], [ %58, %55 ]
  %61 = zext i1 %60 to i32
  store i32 %61, ptr %9, align 4, !tbaa !11
  br label %62

62:                                               ; preds = %59, %48
  br label %63

63:                                               ; preds = %62, %31
  %64 = load i32, ptr %9, align 4, !tbaa !11
  store i32 %64, ptr %4, align 4
  store i32 1, ptr %10, align 4
  br label %65

65:                                               ; preds = %63, %19, %14
  call void @llvm.lifetime.end.p0(i64 4, ptr %9) #6
  call void @llvm.lifetime.end.p0(i64 8, ptr %8) #6
  %66 = load i32, ptr %4, align 4
  ret i32 %66
}