; Function Attrs: nounwind uwtable
define internal range(i32 0, 2) i32 @rsa_validate(ptr noundef %0, i32 noundef %1, i32 %2) #0 {
  %4 = tail call i32 @ossl_prov_is_running() #6
  %.not = icmp eq i32 %4, 0
  br i1 %.not, label %23, label %5

5:                                                ; preds = %3
  %6 = and i32 %1, 131
  %7 = icmp eq i32 %6, 0
  br i1 %7, label %23, label %8

8:                                                ; preds = %5
  %9 = and i32 %1, 3
  %10 = icmp eq i32 %9, 3
  br i1 %10, label %11, label %14

11:                                               ; preds = %8
  %12 = tail call i32 @ossl_rsa_validate_pairwise(ptr noundef %0) #6
  %13 = icmp ne i32 %12, 0
  br label %23

14:                                               ; preds = %8
  %15 = and i32 %1, 1
  %.not13 = icmp eq i32 %15, 0
  br i1 %.not13, label %.thread, label %16

16:                                               ; preds = %14
  %17 = tail call i32 @ossl_rsa_validate_private(ptr noundef %0) #6
  %18 = icmp ne i32 %17, 0
  %19 = and i32 %1, 2
  %.not14 = icmp eq i32 %19, 0
  %.not22 = xor i1 %18, true
  %brmerge = select i1 %.not14, i1 true, i1 %.not22
  %.mux = select i1 %.not14, i1 %18, i1 false
  br i1 %brmerge, label %23, label %.thread19

.thread:                                          ; preds = %14
  %20 = and i32 %1, 2
  %.not1417 = icmp eq i32 %20, 0
  br i1 %.not1417, label %23, label %.thread19

.thread19:                                        ; preds = %16, %.thread
  %21 = tail call i32 @ossl_rsa_validate_public(ptr noundef %0) #6
  %22 = icmp ne i32 %21, 0
  br label %23

23:                                               ; preds = %16, %.thread, %11, %.thread19, %5, %3
  %.012.shrunk = phi i1 [ false, %3 ], [ true, %5 ], [ %13, %11 ], [ %.mux, %16 ], [ %22, %.thread19 ], [ true, %.thread ]
  %.012 = zext i1 %.012.shrunk to i32
  ret i32 %.012
}